; Function Attrs: mustprogress uwtable
define noundef i64 @_ZN4LIEF5MachO7Builder5writeERNS0_6BinaryERKNSt7__cxx1112basic_stringIcSt11char_traitsIcESaIcEEENS1_8config_tE(ptr noundef nonnull align 8 dereferenceable(384) %0, ptr noundef nonnull align 8 dereferenceable(32) %1, i8 %2) local_unnamed_addr #3 align 2 personality ptr @__gxx_personality_v0 {
  %4 = alloca %"class.LIEF::MachO::Builder", align 8
  call void @_ZN4LIEF5MachO7BuilderC1ERNS0_6BinaryENS1_8config_tE(ptr noundef nonnull align 8 dereferenceable(137) %4, ptr noundef nonnull align 8 dereferenceable(384) %0, i8 %2)
  %5 = getelementptr inbounds i8, ptr %4, i64 24
  %6 = load ptr, ptr %5, align 8
  %7 = getelementptr inbounds i8, ptr %6, i64 24
  %8 = load i8, ptr %7, align 8
  %9 = and i8 %8, 1
  %.not.i = icmp eq i8 %9, 0
  br i1 %.not.i, label %12, label %10

10:                                               ; preds = %3
  %11 = invoke i64 @_ZN4LIEF5MachO7Builder5buildINS0_7details7MachO64EEEN2tl8expectedINS_4ok_tE11lief_errorsEEv(ptr noundef nonnull align 8 dereferenceable(137) %4)
          to label %_ZN4LIEF5MachO7Builder5buildEv.exit unwind label %16

12:                                               ; preds = %3
  %13 = invoke i64 @_ZN4LIEF5MachO7Builder5buildINS0_7details7MachO32EEEN2tl8expectedINS_4ok_tE11lief_errorsEEv(ptr noundef nonnull align 8 dereferenceable(137) %4)
          to label %_ZN4LIEF5MachO7Builder5buildEv.exit unwind label %16

_ZN4LIEF5MachO7Builder5buildEv.exit:              ; preds = %10, %12
  %14 = invoke i64 @_ZNK4LIEF5MachO7Builder5writeERKNSt7__cxx1112basic_stringIcSt11char_traitsIcESaIcEEE(ptr noundef nonnull align 8 dereferenceable(137) %4, ptr noundef nonnull align 8 dereferenceable(32) %1)
          to label %15 unwind label %16

15:                                               ; preds = %_ZN4LIEF5MachO7Builder5buildEv.exit
  call void @_ZN4LIEF5MachO7BuilderD1Ev(ptr noundef nonnull align 8 dereferenceable(137) %4) #20
  ret i64 4294967296

16:                                               ; preds = %12, %10, %_ZN4LIEF5MachO7Builder5buildEv.exit
  %17 = landingpad { ptr, i32 }
          cleanup
  call void @_ZN4LIEF5MachO7BuilderD1Ev(ptr noundef nonnull align 8 dereferenceable(137) %4) #20
  resume { ptr, i32 } %17
}